; Function Attrs: mustprogress uwtable
define void @_ZN7jsonnet8internal12CompilerPass5visitEPNS0_6AssertE(ptr noundef nonnull align 8 dereferenceable(16) %0, ptr noundef %1) unnamed_addr #4 align 2 {
  %3 = getelementptr inbounds nuw i8, ptr %1, i64 128
  %4 = load ptr, ptr %0, align 8, !tbaa !17
  %5 = getelementptr inbounds nuw i8, ptr %4, i64 48
  %6 = load ptr, ptr %5, align 8
  tail call void %6(ptr noundef nonnull align 8 dereferenceable(16) %0, ptr noundef nonnull align 8 dereferenceable(8) %3)
  %7 = getelementptr inbounds nuw i8, ptr %1, i64 160
  %8 = load ptr, ptr %7, align 8, !tbaa !67
  %.not = icmp eq ptr %8, null
  br i1 %.not, label %17, label %9

9:                                                ; preds = %2
  %10 = getelementptr inbounds nuw i8, ptr %1, i64 136
  %11 = load ptr, ptr %0, align 8, !tbaa !17
  %12 = getelementptr inbounds nuw i8, ptr %11, i64 8
  %13 = load ptr, ptr %12, align 8
  tail call void %13(ptr noundef nonnull align 8 dereferenceable(16) %0, ptr noundef nonnull align 8 dereferenceable(24) %10)
  %14 = load ptr, ptr %0, align 8, !tbaa !17
  %15 = getelementptr inbounds nuw i8, ptr %14, i64 48
  %16 = load ptr, ptr %15, align 8
  tail call void %16(ptr noundef nonnull align 8 dereferenceable(16) %0, ptr noundef nonnull align 8 dereferenceable(8) %7)
  br label %17

17:                                               ; preds = %9, %2
  %18 = getelementptr inbounds nuw i8, ptr %1, i64 168
  %19 = load ptr, ptr %0, align 8, !tbaa !17
  %20 = getelementptr inbounds nuw i8, ptr %19, i64 8
  %21 = load ptr, ptr %20, align 8
  tail call void %21(ptr noundef nonnull align 8 dereferenceable(16) %0, ptr noundef nonnull align 8 dereferenceable(24) %18)
  %22 = getelementptr inbounds nuw i8, ptr %1, i64 192
  %23 = load ptr, ptr %0, align 8, !tbaa !17
  %24 = getelementptr inbounds nuw i8, ptr %23, i64 48
  %25 = load ptr, ptr %24, align 8
  tail call void %25(ptr noundef nonnull align 8 dereferenceable(16) %0, ptr noundef nonnull align 8 dereferenceable(8) %22)
  ret void
}